BL51 BANKED LINKER/LOCATER V6.22                                                        04/12/2015  01:32:40  PAGE 1


BL51 BANKED LINKER/LOCATER V6.22, INVOKED BY:
C:\KEIL\C51\BIN\BL51.EXE .\out\main.obj TO .\out\test_printf PRINT (.\list\test_printf.m51)


MEMORY MODEL: SMALL


INPUT MODULES INCLUDED:
  .\out\main.obj (MAIN)
  C:\KEIL\C51\LIB\C51S.LIB (?C_STARTUP)
  C:\KEIL\C51\LIB\C51S.LIB (?C?CLDPTR)
  C:\KEIL\C51\LIB\C51S.LIB (?C?CLDOPTR)
  C:\KEIL\C51\LIB\C51S.LIB (?C?ILDIX)
  C:\KEIL\C51\LIB\C51S.LIB (?C?PLDPTR)
  C:\KEIL\C51\LIB\C51S.LIB (?C?PLDIDATA)
  C:\KEIL\C51\LIB\C51S.LIB (?C?PLDXDATA)
  C:\KEIL\C51\LIB\C51S.LIB (?C?PLDPDATA)
  C:\KEIL\C51\LIB\C51S.LIB (?C?PLDCODE)


LINK MAP OF MODULE:  .\out\test_printf (MAIN)


            TYPE    BASE      LENGTH    RELOCATION   SEGMENT NAME
            -----------------------------------------------------

            * * * * * * *   D A T A   M E M O R Y   * * * * * * *
            REG     0000H     0008H     ABSOLUTE     "REG BANK 0"
            IDATA   0008H     0001H     UNIT         ?STACK

            * * * * * * *  X D A T A   M E M O R Y  * * * * * * *
            XDATA   0000H     0032H     UNIT         _XDATA_GROUP_

            * * * * * * *   C O D E   M E M O R Y   * * * * * * *
            CODE    0000H     0003H     ABSOLUTE     
            CODE    0003H     00A3H     UNIT         ?C?LIB_CODE
            CODE    00A6H     007CH     UNIT         ?PR?MAIN?MAIN
            CODE    0122H     0061H     UNIT         ?PR?_PUT_CHAR_ARGS?MAIN
            CODE    0183H     004CH     UNIT         ?PR?_PUT_CHAR?MAIN
            CODE    01CFH     003EH     UNIT         ?CO?MAIN
            CODE    020DH     0015H     UNIT         ?PR?UART_INIT?MAIN
            CODE    0222H     000CH     UNIT         ?C_C51STARTUP



OVERLAY MAP OF MODULE:   .\out\test_printf (MAIN)


SEGMENT                           XDATA_GROUP
  +--> CALLED SEGMENT           START    LENGTH
-----------------------------------------------
?C_C51STARTUP                   -----    -----
  +--> ?PR?MAIN?MAIN

?PR?MAIN?MAIN                   -----    -----
  +--> ?PR?UART_INIT?MAIN
  +--> ?CO?MAIN
  +--> ?PR?_PUT_CHAR_ARGS?MAIN
BL51 BANKED LINKER/LOCATER V6.22                                                      04/12/2015  01:32:40  PAGE 2



?PR?_PUT_CHAR_ARGS?MAIN         0000H    002FH
  +--> ?PR?_PUT_CHAR?MAIN

?PR?_PUT_CHAR?MAIN              002FH    0003H



SYMBOL TABLE OF MODULE:  .\out\test_printf (MAIN)

  VALUE           TYPE          NAME
  ----------------------------------

  -------         MODULE        MAIN
  C:0000H         SYMBOL        _ICE_DUMMY_
  B:00A8H.4       PUBLIC        ES
  B:0098H.1       PUBLIC        TI
  C:00A6H         PUBLIC        main
  D:0099H         PUBLIC        SBUF
  D:0087H         PUBLIC        PCON
  D:0098H         PUBLIC        SCON
  C:020DH         PUBLIC        Uart_init
  D:0089H         PUBLIC        TMOD
  D:0088H         PUBLIC        TCON
  D:008DH         PUBLIC        TH1
  D:008BH         PUBLIC        TL1
  C:0183H         PUBLIC        _put_char
  C:0122H         PUBLIC        _put_char_args
  -------         PROC          UART_INIT
  C:020DH         LINE#         10
  C:020DH         LINE#         11
  C:020DH         LINE#         12
  C:0210H         LINE#         13
  C:0213H         LINE#         14
  C:0216H         LINE#         15
  C:0219H         LINE#         16
  C:021CH         LINE#         17
  C:021FH         LINE#         18
  C:0221H         LINE#         20
  -------         ENDPROC       UART_INIT
  -------         PROC          _PUT_CHAR
  X:002FH         SYMBOL        tmp
  -------         DO            
  D:0006H         SYMBOL        i
  -------         ENDDO         
  C:0183H         LINE#         22
  C:018EH         LINE#         25
  C:0191H         LINE#         27
  C:01C0H         LINE#         28
  C:01C0H         LINE#         29
  C:01C2H         LINE#         31
  C:01C4H         LINE#         33
  C:01C7H         LINE#         35
  C:01CCH         LINE#         36
  C:01CEH         LINE#         37
  -------         ENDPROC       _PUT_CHAR
  -------         PROC          _PUT_CHAR_ARGS
BL51 BANKED LINKER/LOCATER V6.22                                                      04/12/2015  01:32:40  PAGE 3


  X:0000H         SYMBOL        arg1
  -------         DO            
  X:0003H         SYMBOL        ellipsis_40
  X:002BH         SYMBOL        ap
  D:0001H         SYMBOL        str
  X:002EH         SYMBOL        rent
  -------         ENDDO         
  C:0122H         LINE#         39
  C:012DH         LINE#         42
  C:0133H         LINE#         45
  C:0141H         LINE#         46
  C:014CH         LINE#         53
  C:014CH         LINE#         54
  C:0158H         LINE#         57
  C:016BH         LINE#         60
  C:017AH         LINE#         64
  -------         ENDPROC       _PUT_CHAR_ARGS
  -------         PROC          MAIN
  -------         DO            
  C:020AH         SYMBOL        tmp_str
  -------         ENDDO         
  C:00A6H         LINE#         67
  C:00A6H         LINE#         71
  C:00A9H         LINE#         72
  C:00ABH         LINE#         75
  C:0120H         LINE#         77
  -------         ENDPROC       MAIN
  -------         ENDMOD        MAIN

  -------         MODULE        ?C?CLDPTR
  C:0003H         PUBLIC        ?C?CLDPTR
  -------         ENDMOD        ?C?CLDPTR

  -------         MODULE        ?C?CLDOPTR
  C:001CH         PUBLIC        ?C?CLDOPTR
  -------         ENDMOD        ?C?CLDOPTR

  -------         MODULE        ?C?ILDIX
  C:0049H         PUBLIC        ?C?ILDIX
  -------         ENDMOD        ?C?ILDIX

  -------         MODULE        ?C?PLDPTR
  C:005FH         PUBLIC        ?C?PLDPTR
  -------         ENDMOD        ?C?PLDPTR

  -------         MODULE        ?C?PLDIDATA
  C:007FH         PUBLIC        ?C?PLDIDATA
  -------         ENDMOD        ?C?PLDIDATA

  -------         MODULE        ?C?PLDXDATA
  C:0088H         PUBLIC        ?C?PLDXDATA
  -------         ENDMOD        ?C?PLDXDATA

  -------         MODULE        ?C?PLDPDATA
  C:0091H         PUBLIC        ?C?PLDPDATA
  -------         ENDMOD        ?C?PLDPDATA

BL51 BANKED LINKER/LOCATER V6.22                                                      04/12/2015  01:32:40  PAGE 4


  -------         MODULE        ?C?PLDCODE
  C:009AH         PUBLIC        ?C?PLDCODE
  -------         ENDMOD        ?C?PLDCODE

Program Size: data=9.0 xdata=50 code=558
LINK/LOCATE RUN COMPLETE.  0 WARNING(S),  0 ERROR(S)
